target datalayout = "e-m:e-p270:32:32-p271:32:32-p272:64:64-i64:64-i128:128-f80:128-n8:16:32:64-S128"
target triple = "x86_64-pc-linux-gnu"

%struct._packet_info = type { ptr, ptr, i32, i32, %struct.nstime_t, %struct.nstime_t, %struct.nstime_t, i8, ptr, ptr, ptr, ptr, %struct._address, %struct._address, %struct._address, %struct._address, %struct._address, %struct._address, i32, ptr, i8, [3 x i8], %struct.anon, i32, i32, i32, i32, ptr, i8, ptr, ptr, i16, i16, i32, i32, i16, i32, i32, ptr, ptr, ptr, i8, i8, i16, i16, i16, i32, i16, i16, ptr, ptr, ptr, ptr, ptr, i32, i32 }
%struct.nstime_t = type { i64, i32 }
%struct._address = type { i32, i32, ptr, ptr }
%struct.anon = type { i8, [3 x i8] }
%struct._ndmp_conv_data_t = type { i8, ptr, ptr, ptr, ptr, ptr, ptr }
%struct._ndmp_task_data_t = type { i32, i32, %struct.nstime_t, ptr }
%struct._itlq_nexus_t = type { i32, i32, i16, i16, i16, i16, i32, i32, i32, %struct.nstime_t, %struct.nstime_t, ptr }
%struct._itl_nexus_t = type { i8, ptr }

@hf_ndmp_execute_cdb_flags = internal global i32 0, align 4
@hf_ndmp_execute_cdb_timeout = internal global i32 0, align 4
@hf_ndmp_execute_cdb_datain_len = internal global i32 0, align 4
@hf_ndmp_execute_cdb_cdb_len = internal global i32 0, align 4
@hf_ndmp_execute_cdb_dataout_len = internal global i32 0, align 4
@ett_ndmp_execute_cdb_flags = internal global i32 0, align 4
@ett_ndmp_execute_cdb_cdb = internal global i32 0, align 4
@top_tree = internal global ptr null, align 8
@ndmp_conv_data = internal global ptr null, align 8
@.str.752 = private unnamed_addr constant [9 x i8] c"Data out\00", align 1
@dissect_execute_cdb_flags.cdb_flags = internal constant [3 x ptr] [ptr @hf_ndmp_execute_cdb_flags_data_in, ptr @hf_ndmp_execute_cdb_flags_data_out, ptr null], align 16
@.str.753 = private unnamed_addr constant [4 x i8] c"CDB\00", align 1

; Function Attrs: null_pointer_is_valid sspstrong uwtable
define internal ptr @get_itl_nexus(ptr noundef %0, i1 noundef zeroext %1) #0 {
  %3 = alloca ptr, align 8
  %4 = alloca i8, align 1
  %5 = alloca ptr, align 8
  store ptr %0, ptr %3, align 8
  %6 = zext i1 %1 to i8
  store i8 %6, ptr %4, align 1
  call void @llvm.lifetime.start.p0(i64 8, ptr %5) #9
  %7 = load i8, ptr %4, align 1, !range !6, !noundef !7
  %8 = trunc i8 %7 to i1
  br i1 %8, label %18, label %9

9:                                                ; preds = %2
  %10 = load ptr, ptr @ndmp_conv_data, align 8
  %11 = getelementptr inbounds nuw %struct._ndmp_conv_data_t, ptr %10, i32 0, i32 2
  %12 = load ptr, ptr %11, align 8
  %13 = load ptr, ptr %3, align 8
  %14 = getelementptr inbounds nuw %struct._packet_info, ptr %13, i32 0, i32 3
  %15 = load i32, ptr %14, align 4
  %16 = call ptr @wmem_tree_lookup32_le(ptr noundef %12, i32 noundef %15)
  store ptr %16, ptr %5, align 8
  %17 = icmp ne ptr %16, null
  br i1 %17, label %35, label %18

18:                                               ; preds = %9, %2
  %19 = call ptr @wmem_file_scope()
  %20 = call noalias ptr @wmem_alloc(ptr noundef %19, i64 noundef 16) #10
  store ptr %20, ptr %5, align 8
  %21 = load ptr, ptr %5, align 8
  %22 = getelementptr inbounds nuw %struct._itl_nexus_t, ptr %21, i32 0, i32 0
  store i8 -1, ptr %22, align 8
  %23 = load ptr, ptr @ndmp_conv_data, align 8
  %24 = getelementptr inbounds nuw %struct._ndmp_conv_data_t, ptr %23, i32 0, i32 6
  %25 = load ptr, ptr %24, align 8
  %26 = load ptr, ptr %5, align 8
  %27 = getelementptr inbounds nuw %struct._itl_nexus_t, ptr %26, i32 0, i32 1
  store ptr %25, ptr %27, align 8
  %28 = load ptr, ptr @ndmp_conv_data, align 8
  %29 = getelementptr inbounds nuw %struct._ndmp_conv_data_t, ptr %28, i32 0, i32 2
  %30 = load ptr, ptr %29, align 8
  %31 = load ptr, ptr %3, align 8
  %32 = getelementptr inbounds nuw %struct._packet_info, ptr %31, i32 0, i32 3
  %33 = load i32, ptr %32, align 4
  %34 = load ptr, ptr %5, align 8
  call void @wmem_tree_insert32(ptr noundef %30, i32 noundef %33, ptr noundef %34)
  br label %35

35:                                               ; preds = %18, %9
  %36 = load ptr, ptr %5, align 8
  call void @llvm.lifetime.end.p0(i64 8, ptr %5) #9
  ret ptr %36
}

; Function Attrs: null_pointer_is_valid sspstrong uwtable
define internal i32 @dissect_execute_cdb_cdb(ptr noundef %0, i32 noundef %1, ptr noundef %2, ptr noundef %3, i32 noundef %4) #0 {
  %6 = alloca ptr, align 8
  %7 = alloca i32, align 4
  %8 = alloca ptr, align 8
  %9 = alloca ptr, align 8
  %10 = alloca i32, align 4
  %11 = alloca ptr, align 8
  %12 = alloca i32, align 4
  %13 = alloca i32, align 4
  %14 = alloca ptr, align 8
  %15 = alloca i32, align 4
  %16 = alloca i32, align 4
  store ptr %0, ptr %6, align 8
  store i32 %1, ptr %7, align 4
  store ptr %2, ptr %8, align 8
  store ptr %3, ptr %9, align 8
  store i32 %4, ptr %10, align 4
  call void @llvm.lifetime.start.p0(i64 8, ptr %11) #9
  call void @llvm.lifetime.start.p0(i64 4, ptr %12) #9
  call void @llvm.lifetime.start.p0(i64 4, ptr %13) #9
  %17 = load ptr, ptr %6, align 8
  %18 = load i32, ptr %7, align 4
  %19 = call i32 @tvb_get_ntohl(ptr noundef %17, i32 noundef %18)
  store i32 %19, ptr %12, align 4
  %20 = load i32, ptr %12, align 4
  %21 = call i32 @rpc_roundup(i32 noundef %20)
  store i32 %21, ptr %13, align 4
  %22 = load ptr, ptr %9, align 8
  %23 = load ptr, ptr %6, align 8
  %24 = load i32, ptr %7, align 4
  %25 = load i32, ptr %13, align 4
  %26 = add i32 4, %25
  %27 = load i32, ptr @ett_ndmp_execute_cdb_cdb, align 4
  %28 = call ptr @proto_tree_add_subtree(ptr noundef %22, ptr noundef %23, i32 noundef %24, i32 noundef %26, i32 noundef %27, ptr noundef null, ptr noundef @.str.753)
  store ptr %28, ptr %11, align 8
  %29 = load ptr, ptr %11, align 8
  %30 = load i32, ptr @hf_ndmp_execute_cdb_cdb_len, align 4
  %31 = load ptr, ptr %6, align 8
  %32 = load i32, ptr %7, align 4
  %33 = load i32, ptr %12, align 4
  %34 = call ptr @proto_tree_add_uint(ptr noundef %29, i32 noundef %30, ptr noundef %31, i32 noundef %32, i32 noundef 4, i32 noundef %33)
  %35 = load i32, ptr %7, align 4
  %36 = add i32 %35, 4
  store i32 %36, ptr %7, align 4
  %37 = load i32, ptr %12, align 4
  %38 = icmp ne i32 %37, 0
  br i1 %38, label %39, label %176

39:                                               ; preds = %5
  call void @llvm.lifetime.start.p0(i64 8, ptr %14) #9
  call void @llvm.lifetime.start.p0(i64 4, ptr %15) #9
  call void @llvm.lifetime.start.p0(i64 4, ptr %16) #9
  %40 = load ptr, ptr %6, align 8
  %41 = load i32, ptr %7, align 4
  %42 = call i32 @tvb_captured_length_remaining(ptr noundef %40, i32 noundef %41)
  store i32 %42, ptr %15, align 4
  %43 = load i32, ptr %15, align 4
  %44 = icmp sgt i32 %43, 16
  br i1 %44, label %45, label %46

45:                                               ; preds = %39
  store i32 16, ptr %15, align 4
  br label %46

46:                                               ; preds = %45, %39
  %47 = load ptr, ptr %6, align 8
  %48 = load i32, ptr %7, align 4
  %49 = call i32 @tvb_reported_length_remaining(ptr noundef %47, i32 noundef %48)
  store i32 %49, ptr %16, align 4
  %50 = load i32, ptr %16, align 4
  %51 = icmp sgt i32 %50, 16
  br i1 %51, label %52, label %53

52:                                               ; preds = %46
  store i32 16, ptr %16, align 4
  br label %53

53:                                               ; preds = %52, %46
  %54 = load ptr, ptr %6, align 8
  %55 = load i32, ptr %7, align 4
  %56 = load i32, ptr %15, align 4
  %57 = load i32, ptr %16, align 4
  %58 = call ptr @tvb_new_subset_length_caplen(ptr noundef %54, i32 noundef %55, i32 noundef %56, i32 noundef %57)
  store ptr %58, ptr %14, align 8
  %59 = load ptr, ptr @ndmp_conv_data, align 8
  %60 = getelementptr inbounds nuw %struct._ndmp_conv_data_t, ptr %59, i32 0, i32 5
  %61 = load ptr, ptr %60, align 8
  %62 = icmp ne ptr %61, null
  br i1 %62, label %63, label %148

63:                                               ; preds = %53
  %64 = load ptr, ptr @ndmp_conv_data, align 8
  %65 = getelementptr inbounds nuw %struct._ndmp_conv_data_t, ptr %64, i32 0, i32 5
  %66 = load ptr, ptr %65, align 8
  %67 = getelementptr inbounds nuw %struct._ndmp_task_data_t, ptr %66, i32 0, i32 3
  %68 = load ptr, ptr %67, align 8
  %69 = icmp ne ptr %68, null
  br i1 %69, label %148, label %70

70:                                               ; preds = %63
  %71 = call ptr @wmem_file_scope()
  %72 = call noalias ptr @wmem_alloc(ptr noundef %71, i64 noundef 72) #10
  %73 = load ptr, ptr @ndmp_conv_data, align 8
  %74 = getelementptr inbounds nuw %struct._ndmp_conv_data_t, ptr %73, i32 0, i32 5
  %75 = load ptr, ptr %74, align 8
  %76 = getelementptr inbounds nuw %struct._ndmp_task_data_t, ptr %75, i32 0, i32 3
  store ptr %72, ptr %76, align 8
  %77 = load ptr, ptr @ndmp_conv_data, align 8
  %78 = getelementptr inbounds nuw %struct._ndmp_conv_data_t, ptr %77, i32 0, i32 5
  %79 = load ptr, ptr %78, align 8
  %80 = getelementptr inbounds nuw %struct._ndmp_task_data_t, ptr %79, i32 0, i32 3
  %81 = load ptr, ptr %80, align 8
  %82 = getelementptr inbounds nuw %struct._itlq_nexus_t, ptr %81, i32 0, i32 2
  store i16 -1, ptr %82, align 8
  %83 = load ptr, ptr %8, align 8
  %84 = getelementptr inbounds nuw %struct._packet_info, ptr %83, i32 0, i32 3
  %85 = load i32, ptr %84, align 4
  %86 = load ptr, ptr @ndmp_conv_data, align 8
  %87 = getelementptr inbounds nuw %struct._ndmp_conv_data_t, ptr %86, i32 0, i32 5
  %88 = load ptr, ptr %87, align 8
  %89 = getelementptr inbounds nuw %struct._ndmp_task_data_t, ptr %88, i32 0, i32 3
  %90 = load ptr, ptr %89, align 8
  %91 = getelementptr inbounds nuw %struct._itlq_nexus_t, ptr %90, i32 0, i32 0
  store i32 %85, ptr %91, align 8
  %92 = load ptr, ptr @ndmp_conv_data, align 8
  %93 = getelementptr inbounds nuw %struct._ndmp_conv_data_t, ptr %92, i32 0, i32 5
  %94 = load ptr, ptr %93, align 8
  %95 = getelementptr inbounds nuw %struct._ndmp_task_data_t, ptr %94, i32 0, i32 3
  %96 = load ptr, ptr %95, align 8
  %97 = getelementptr inbounds nuw %struct._itlq_nexus_t, ptr %96, i32 0, i32 1
  store i32 0, ptr %97, align 4
  %98 = load ptr, ptr @ndmp_conv_data, align 8
  %99 = getelementptr inbounds nuw %struct._ndmp_conv_data_t, ptr %98, i32 0, i32 5
  %100 = load ptr, ptr %99, align 8
  %101 = getelementptr inbounds nuw %struct._ndmp_task_data_t, ptr %100, i32 0, i32 3
  %102 = load ptr, ptr %101, align 8
  %103 = getelementptr inbounds nuw %struct._itlq_nexus_t, ptr %102, i32 0, i32 3
  store i16 -1, ptr %103, align 2
  %104 = load ptr, ptr @ndmp_conv_data, align 8
  %105 = getelementptr inbounds nuw %struct._ndmp_conv_data_t, ptr %104, i32 0, i32 5
  %106 = load ptr, ptr %105, align 8
  %107 = getelementptr inbounds nuw %struct._ndmp_task_data_t, ptr %106, i32 0, i32 3
  %108 = load ptr, ptr %107, align 8
  %109 = getelementptr inbounds nuw %struct._itlq_nexus_t, ptr %108, i32 0, i32 5
  store i16 0, ptr %109, align 2
  %110 = load ptr, ptr @ndmp_conv_data, align 8
  %111 = getelementptr inbounds nuw %struct._ndmp_conv_data_t, ptr %110, i32 0, i32 5
  %112 = load ptr, ptr %111, align 8
  %113 = getelementptr inbounds nuw %struct._ndmp_task_data_t, ptr %112, i32 0, i32 3
  %114 = load ptr, ptr %113, align 8
  %115 = getelementptr inbounds nuw %struct._itlq_nexus_t, ptr %114, i32 0, i32 6
  store i32 0, ptr %115, align 8
  %116 = load ptr, ptr @ndmp_conv_data, align 8
  %117 = getelementptr inbounds nuw %struct._ndmp_conv_data_t, ptr %116, i32 0, i32 5
  %118 = load ptr, ptr %117, align 8
  %119 = getelementptr inbounds nuw %struct._ndmp_task_data_t, ptr %118, i32 0, i32 3
  %120 = load ptr, ptr %119, align 8
  %121 = getelementptr inbounds nuw %struct._itlq_nexus_t, ptr %120, i32 0, i32 7
  store i32 0, ptr %121, align 4
  %122 = load ptr, ptr @ndmp_conv_data, align 8
  %123 = getelementptr inbounds nuw %struct._ndmp_conv_data_t, ptr %122, i32 0, i32 5
  %124 = load ptr, ptr %123, align 8
  %125 = getelementptr inbounds nuw %struct._ndmp_task_data_t, ptr %124, i32 0, i32 3
  %126 = load ptr, ptr %125, align 8
  %127 = getelementptr inbounds nuw %struct._itlq_nexus_t, ptr %126, i32 0, i32 4
  store i16 0, ptr %127, align 4
  %128 = load ptr, ptr @ndmp_conv_data, align 8
  %129 = getelementptr inbounds nuw %struct._ndmp_conv_data_t, ptr %128, i32 0, i32 5
  %130 = load ptr, ptr %129, align 8
  %131 = getelementptr inbounds nuw %struct._ndmp_task_data_t, ptr %130, i32 0, i32 3
  %132 = load ptr, ptr %131, align 8
  %133 = getelementptr inbounds nuw %struct._itlq_nexus_t, ptr %132, i32 0, i32 8
  store i32 0, ptr %133, align 8
  %134 = load ptr, ptr @ndmp_conv_data, align 8
  %135 = getelementptr inbounds nuw %struct._ndmp_conv_data_t, ptr %134, i32 0, i32 5
  %136 = load ptr, ptr %135, align 8
  %137 = getelementptr inbounds nuw %struct._ndmp_task_data_t, ptr %136, i32 0, i32 3
  %138 = load ptr, ptr %137, align 8
  %139 = getelementptr inbounds nuw %struct._itlq_nexus_t, ptr %138, i32 0, i32 9
  %140 = load ptr, ptr %8, align 8
  %141 = getelementptr inbounds nuw %struct._packet_info, ptr %140, i32 0, i32 4
  call void @llvm.memcpy.p0.p0.i64(ptr align 8 %139, ptr align 8 %141, i64 16, i1 false)
  %142 = load ptr, ptr @ndmp_conv_data, align 8
  %143 = getelementptr inbounds nuw %struct._ndmp_conv_data_t, ptr %142, i32 0, i32 5
  %144 = load ptr, ptr %143, align 8
  %145 = getelementptr inbounds nuw %struct._ndmp_task_data_t, ptr %144, i32 0, i32 3
  %146 = load ptr, ptr %145, align 8
  %147 = getelementptr inbounds nuw %struct._itlq_nexus_t, ptr %146, i32 0, i32 11
  store ptr null, ptr %147, align 8
  br label %148

148:                                              ; preds = %70, %63, %53
  %149 = load ptr, ptr @ndmp_conv_data, align 8
  %150 = getelementptr inbounds nuw %struct._ndmp_conv_data_t, ptr %149, i32 0, i32 5
  %151 = load ptr, ptr %150, align 8
  %152 = icmp ne ptr %151, null
  br i1 %152, label %153, label %172

153:                                              ; preds = %148
  %154 = load ptr, ptr @ndmp_conv_data, align 8
  %155 = getelementptr inbounds nuw %struct._ndmp_conv_data_t, ptr %154, i32 0, i32 5
  %156 = load ptr, ptr %155, align 8
  %157 = getelementptr inbounds nuw %struct._ndmp_task_data_t, ptr %156, i32 0, i32 3
  %158 = load ptr, ptr %157, align 8
  %159 = icmp ne ptr %158, null
  br i1 %159, label %160, label %172

160:                                              ; preds = %153
  %161 = load ptr, ptr %14, align 8
  %162 = load ptr, ptr %8, align 8
  %163 = load ptr, ptr @top_tree, align 8
  %164 = load i32, ptr %10, align 4
  %165 = load ptr, ptr @ndmp_conv_data, align 8
  %166 = getelementptr inbounds nuw %struct._ndmp_conv_data_t, ptr %165, i32 0, i32 5
  %167 = load ptr, ptr %166, align 8
  %168 = getelementptr inbounds nuw %struct._ndmp_task_data_t, ptr %167, i32 0, i32 3
  %169 = load ptr, ptr %168, align 8
  %170 = load ptr, ptr %8, align 8
  %171 = call ptr @get_itl_nexus(ptr noundef %170, i1 noundef zeroext false)
  call void @dissect_scsi_cdb(ptr noundef %161, ptr noundef %162, ptr noundef %163, i32 noundef %164, ptr noundef %169, ptr noundef %171)
  br label %172

172:                                              ; preds = %160, %153, %148
  %173 = load i32, ptr %13, align 4
  %174 = load i32, ptr %7, align 4
  %175 = add i32 %174, %173
  store i32 %175, ptr %7, align 4
  call void @llvm.lifetime.end.p0(i64 4, ptr %16) #9
  call void @llvm.lifetime.end.p0(i64 4, ptr %15) #9
  call void @llvm.lifetime.end.p0(i64 8, ptr %14) #9
  br label %176

176:                                              ; preds = %172, %5
  %177 = load i32, ptr %7, align 4
  call void @llvm.lifetime.end.p0(i64 4, ptr %13) #9
  call void @llvm.lifetime.end.p0(i64 4, ptr %12) #9
  call void @llvm.lifetime.end.p0(i64 8, ptr %11) #9
  ret i32 %177
}

; Function Attrs: null_pointer_is_valid sspstrong uwtable
define internal i32 @dissect_execute_cdb_flags(ptr noundef %0, i32 noundef %1, ptr noundef %2, ptr noundef %3) #0 {
  %5 = alloca ptr, align 8
  %6 = alloca i32, align 4
  %7 = alloca ptr, align 8
  %8 = alloca ptr, align 8
  store ptr %0, ptr %5, align 8
  store i32 %1, ptr %6, align 4
  store ptr %2, ptr %7, align 8
  store ptr %3, ptr %8, align 8
  %9 = load ptr, ptr %8, align 8
  %10 = load ptr, ptr %5, align 8
  %11 = load i32, ptr %6, align 4
  %12 = load i32, ptr @hf_ndmp_execute_cdb_flags, align 4
  %13 = load i32, ptr @ett_ndmp_execute_cdb_flags, align 4
  %14 = call ptr @proto_tree_add_bitmask(ptr noundef %9, ptr noundef %10, i32 noundef %11, i32 noundef %12, i32 noundef %13, ptr noundef @dissect_execute_cdb_flags.cdb_flags, i32 noundef 0)
  %15 = load i32, ptr %6, align 4
  %16 = add i32 %15, 4
  store i32 %16, ptr %6, align 4
  %17 = load i32, ptr %6, align 4
  ret i32 %17
}

; Function Attrs: null_pointer_is_valid sspstrong uwtable
define internal i32 @dissect_execute_cdb_request(ptr noundef %0, i32 noundef %1, ptr noundef %2, ptr noundef %3, i32 noundef %4, i32 noundef %5) #0 {
  %7 = alloca ptr, align 8
  %8 = alloca i32, align 4
  %9 = alloca ptr, align 8
  %10 = alloca ptr, align 8
  %11 = alloca i32, align 4
  %12 = alloca i32, align 4
  store ptr %0, ptr %7, align 8
  store i32 %1, ptr %8, align 4
  store ptr %2, ptr %9, align 8
  store ptr %3, ptr %10, align 8
  store i32 %4, ptr %11, align 4
  store i32 %5, ptr %12, align 4
  %13 = load ptr, ptr %7, align 8
  %14 = load i32, ptr %8, align 4
  %15 = load ptr, ptr %9, align 8
  %16 = load ptr, ptr %10, align 8
  %17 = call i32 @dissect_execute_cdb_flags(ptr noundef %13, i32 noundef %14, ptr noundef %15, ptr noundef %16)
  store i32 %17, ptr %8, align 4
  %18 = load ptr, ptr %10, align 8
  %19 = load i32, ptr @hf_ndmp_execute_cdb_timeout, align 4
  %20 = load ptr, ptr %7, align 8
  %21 = load i32, ptr %8, align 4
  %22 = call ptr @proto_tree_add_item(ptr noundef %18, i32 noundef %19, ptr noundef %20, i32 noundef %21, i32 noundef 4, i32 noundef 0)
  %23 = load i32, ptr %8, align 4
  %24 = add i32 %23, 4
  store i32 %24, ptr %8, align 4
  %25 = load ptr, ptr %10, align 8
  %26 = load i32, ptr @hf_ndmp_execute_cdb_datain_len, align 4
  %27 = load ptr, ptr %7, align 8
  %28 = load i32, ptr %8, align 4
  %29 = call ptr @proto_tree_add_item(ptr noundef %25, i32 noundef %26, ptr noundef %27, i32 noundef %28, i32 noundef 4, i32 noundef 0)
  %30 = load i32, ptr %8, align 4
  %31 = add i32 %30, 4
  store i32 %31, ptr %8, align 4
  %32 = load ptr, ptr %7, align 8
  %33 = load i32, ptr %8, align 4
  %34 = load ptr, ptr %9, align 8
  %35 = load ptr, ptr %10, align 8
  %36 = load i32, ptr %12, align 4
  %37 = call i32 @dissect_execute_cdb_cdb(ptr noundef %32, i32 noundef %33, ptr noundef %34, ptr noundef %35, i32 noundef %36)
  store i32 %37, ptr %8, align 4
  %38 = load ptr, ptr %7, align 8
  %39 = load i32, ptr %8, align 4
  %40 = load ptr, ptr %9, align 8
  %41 = load ptr, ptr %10, align 8
  %42 = load i32, ptr @hf_ndmp_execute_cdb_dataout_len, align 4
  %43 = call i32 @dissect_execute_cdb_payload(ptr noundef %38, i32 noundef %39, ptr noundef %40, ptr noundef %41, ptr noundef @.str.752, i32 noundef %42, i1 noundef zeroext true)
  store i32 %43, ptr %8, align 4
  %44 = load i32, ptr %8, align 4
  ret i32 %44
}