; Function Attrs: null_pointer_is_valid sspstrong uwtable
define internal fastcc i32 @dissect_execute_cdb_request(ptr noundef %0, i32 noundef %1, ptr noundef %2, ptr noundef %3, i32 noundef range(i32 1, 9) %4) unnamed_addr #0 {
  %6 = load i32, ptr @hf_ndmp_execute_cdb_flags, align 4
  %7 = load i32, ptr @ett_ndmp_execute_cdb_flags, align 4
  %8 = tail call ptr @proto_tree_add_bitmask(ptr noundef %3, ptr noundef %0, i32 noundef %1, i32 noundef %6, i32 noundef %7, ptr noundef nonnull @dissect_execute_cdb_flags.cdb_flags, i32 noundef 0)
  %9 = add i32 %1, 4
  %10 = load i32, ptr @hf_ndmp_execute_cdb_timeout, align 4
  %11 = tail call ptr @proto_tree_add_item(ptr noundef %3, i32 noundef %10, ptr noundef %0, i32 noundef %9, i32 noundef 4, i32 noundef 0)
  %12 = add i32 %1, 8
  %13 = load i32, ptr @hf_ndmp_execute_cdb_datain_len, align 4
  %14 = tail call ptr @proto_tree_add_item(ptr noundef %3, i32 noundef %13, ptr noundef %0, i32 noundef %12, i32 noundef 4, i32 noundef 0)
  %15 = add i32 %1, 12
  %16 = tail call i32 @tvb_get_ntohl(ptr noundef %0, i32 noundef %15)
  %17 = tail call i32 @rpc_roundup(i32 noundef %16)
  %18 = add i32 %17, 4
  %19 = load i32, ptr @ett_ndmp_execute_cdb_cdb, align 4
  %20 = tail call ptr @proto_tree_add_subtree(ptr noundef %3, ptr noundef %0, i32 noundef %15, i32 noundef %18, i32 noundef %19, ptr noundef null, ptr noundef nonnull @.str.753)
  %21 = load i32, ptr @hf_ndmp_execute_cdb_cdb_len, align 4
  %22 = tail call ptr @proto_tree_add_uint(ptr noundef %20, i32 noundef %21, ptr noundef %0, i32 noundef %15, i32 noundef 4, i32 noundef %16)
  %23 = add i32 %1, 16
  %.not.i = icmp eq i32 %16, 0
  br i1 %.not.i, label %dissect_execute_cdb_cdb.exit, label %24

24:                                               ; preds = %5
  %25 = tail call i32 @tvb_captured_length_remaining(ptr noundef %0, i32 noundef %23)
  %spec.store.select.i = tail call i32 @llvm.smin.i32(i32 %25, i32 16)
  %26 = tail call i32 @tvb_reported_length_remaining(ptr noundef %0, i32 noundef %23)
  %spec.store.select1.i = tail call i32 @llvm.smin.i32(i32 %26, i32 16)
  %27 = tail call ptr @tvb_new_subset_length_caplen(ptr noundef %0, i32 noundef %23, i32 noundef %spec.store.select.i, i32 noundef %spec.store.select1.i)
  %28 = load ptr, ptr @ndmp_conv_data, align 8
  %29 = getelementptr inbounds nuw i8, ptr %28, i64 40
  %30 = load ptr, ptr %29, align 8
  %.not35.i = icmp eq ptr %30, null
  br i1 %.not35.i, label %.thread.i, label %31

31:                                               ; preds = %24
  %32 = getelementptr inbounds nuw i8, ptr %30, i64 24
  %33 = load ptr, ptr %32, align 8
  %.not36.i = icmp eq ptr %33, null
  br i1 %.not36.i, label %34, label %.thread40.i.thread

34:                                               ; preds = %31
  %35 = tail call ptr @wmem_file_scope()
  %36 = tail call noalias dereferenceable_or_null(72) ptr @wmem_alloc(ptr noundef %35, i64 noundef 72) #8
  %37 = load ptr, ptr @ndmp_conv_data, align 8
  %38 = getelementptr inbounds nuw i8, ptr %37, i64 40
  %39 = load ptr, ptr %38, align 8
  %40 = getelementptr inbounds nuw i8, ptr %39, i64 24
  store ptr %36, ptr %40, align 8
  %41 = load ptr, ptr %38, align 8
  %42 = getelementptr inbounds nuw i8, ptr %41, i64 24
  %43 = load ptr, ptr %42, align 8
  %44 = getelementptr inbounds nuw i8, ptr %43, i64 8
  store i16 -1, ptr %44, align 8
  %45 = getelementptr inbounds nuw i8, ptr %2, i64 20
  %46 = load i32, ptr %45, align 4
  %47 = load ptr, ptr %38, align 8
  %48 = getelementptr inbounds nuw i8, ptr %47, i64 24
  %49 = load ptr, ptr %48, align 8
  store i32 %46, ptr %49, align 8
  %50 = load ptr, ptr %38, align 8
  %51 = getelementptr inbounds nuw i8, ptr %50, i64 24
  %52 = load ptr, ptr %51, align 8
  %53 = getelementptr inbounds nuw i8, ptr %52, i64 4
  store i32 0, ptr %53, align 4
  %54 = load ptr, ptr %38, align 8
  %55 = getelementptr inbounds nuw i8, ptr %54, i64 24
  %56 = load ptr, ptr %55, align 8
  %57 = getelementptr inbounds nuw i8, ptr %56, i64 10
  store i16 -1, ptr %57, align 2
  %58 = load ptr, ptr %38, align 8
  %59 = getelementptr inbounds nuw i8, ptr %58, i64 24
  %60 = load ptr, ptr %59, align 8
  %61 = getelementptr inbounds nuw i8, ptr %60, i64 14
  store i16 0, ptr %61, align 2
  %62 = load ptr, ptr %38, align 8
  %63 = getelementptr inbounds nuw i8, ptr %62, i64 24
  %64 = load ptr, ptr %63, align 8
  %65 = getelementptr inbounds nuw i8, ptr %64, i64 16
  store i32 0, ptr %65, align 8
  %66 = load ptr, ptr %38, align 8
  %67 = getelementptr inbounds nuw i8, ptr %66, i64 24
  %68 = load ptr, ptr %67, align 8
  %69 = getelementptr inbounds nuw i8, ptr %68, i64 20
  store i32 0, ptr %69, align 4
  %70 = load ptr, ptr %38, align 8
  %71 = getelementptr inbounds nuw i8, ptr %70, i64 24
  %72 = load ptr, ptr %71, align 8
  %73 = getelementptr inbounds nuw i8, ptr %72, i64 12
  store i16 0, ptr %73, align 4
  %74 = load ptr, ptr %38, align 8
  %75 = getelementptr inbounds nuw i8, ptr %74, i64 24
  %76 = load ptr, ptr %75, align 8
  %77 = getelementptr inbounds nuw i8, ptr %76, i64 24
  store i32 0, ptr %77, align 8
  %78 = load ptr, ptr %38, align 8
  %79 = getelementptr inbounds nuw i8, ptr %78, i64 24
  %80 = load ptr, ptr %79, align 8
  %81 = getelementptr inbounds nuw i8, ptr %80, i64 32
  %82 = getelementptr inbounds nuw i8, ptr %2, i64 24
  tail call void @llvm.memcpy.p0.p0.i64(ptr noundef nonnull align 8 dereferenceable(16) %81, ptr noundef nonnull align 8 dereferenceable(16) %82, i64 16, i1 false)
  %83 = load ptr, ptr %38, align 8
  %84 = getelementptr inbounds nuw i8, ptr %83, i64 24
  %85 = load ptr, ptr %84, align 8
  %86 = getelementptr inbounds nuw i8, ptr %85, i64 64
  store ptr null, ptr %86, align 8
  %.pre.i = load ptr, ptr %38, align 8
  %.not37.i = icmp eq ptr %.pre.i, null
  br i1 %.not37.i, label %.thread.i, label %.thread40.i

.thread40.i:                                      ; preds = %34
  %.phi.trans.insert = getelementptr inbounds nuw i8, ptr %.pre.i, i64 24
  %.pre = load ptr, ptr %.phi.trans.insert, align 8
  %.not38.i = icmp eq ptr %.pre, null
  br i1 %.not38.i, label %.thread.i, label %.thread40.i.thread

.thread40.i.thread:                               ; preds = %31, %.thread40.i
  %87 = phi ptr [ %37, %.thread40.i ], [ %28, %31 ]
  %88 = phi ptr [ %.pre, %.thread40.i ], [ %33, %31 ]
  %89 = load ptr, ptr @top_tree, align 8
  %90 = getelementptr inbounds nuw i8, ptr %87, i64 16
  %91 = load ptr, ptr %90, align 8
  %92 = getelementptr inbounds nuw i8, ptr %2, i64 20
  %93 = load i32, ptr %92, align 4
  %94 = tail call ptr @wmem_tree_lookup32_le(ptr noundef %91, i32 noundef %93)
  %.not.i.i = icmp eq ptr %94, null
  br i1 %.not.i.i, label %95, label %get_itl_nexus.exit.i

95:                                               ; preds = %.thread40.i.thread
  %96 = tail call ptr @wmem_file_scope()
  %97 = tail call noalias dereferenceable_or_null(16) ptr @wmem_alloc(ptr noundef %96, i64 noundef 16) #8
  store i8 -1, ptr %97, align 8
  %98 = load ptr, ptr @ndmp_conv_data, align 8
  %99 = getelementptr inbounds nuw i8, ptr %98, i64 48
  %100 = load ptr, ptr %99, align 8
  %101 = getelementptr inbounds nuw i8, ptr %97, i64 8
  store ptr %100, ptr %101, align 8
  %102 = getelementptr inbounds nuw i8, ptr %98, i64 16
  %103 = load ptr, ptr %102, align 8
  %104 = load i32, ptr %92, align 4
  tail call void @wmem_tree_insert32(ptr noundef %103, i32 noundef %104, ptr noundef %97)
  br label %get_itl_nexus.exit.i

get_itl_nexus.exit.i:                             ; preds = %95, %.thread40.i.thread
  %.0.i.i = phi ptr [ %97, %95 ], [ %94, %.thread40.i.thread ]
  tail call void @dissect_scsi_cdb(ptr noundef %27, ptr noundef %2, ptr noundef %89, i32 noundef range(i32 1, 9) %4, ptr noundef nonnull %88, ptr noundef %.0.i.i)
  br label %.thread.i

.thread.i:                                        ; preds = %get_itl_nexus.exit.i, %.thread40.i, %34, %24
  %105 = add i32 %17, %23
  br label %dissect_execute_cdb_cdb.exit

dissect_execute_cdb_cdb.exit:                     ; preds = %5, %.thread.i
  %.0.i = phi i32 [ %105, %.thread.i ], [ %23, %5 ]
  %106 = load i32, ptr @hf_ndmp_execute_cdb_dataout_len, align 4
  %107 = tail call fastcc i32 @dissect_execute_cdb_payload(ptr noundef %0, i32 noundef %.0.i, ptr noundef %2, ptr noundef %3, ptr noundef nonnull @.str.752, i32 noundef %106, i1 noundef zeroext true)
  ret i32 %107
}